Certificate:
    Data:
        Version: 3 (0x2)
        Serial Number: 1 (0x1)
        Signature Algorithm: sha256WithRSAEncryption
        Issuer: C=GB, ST=London, L=London, O=MoJ/emailAddress=admin@example.org, CN=MoJ CA
        Validity
            Not Before: Jul  5 13:27:37 2021 GMT
            Not After : Sep  3 13:27:37 2021 GMT
        Subject: C=GB, ST=London, O=MoJ, CN=MoJ Server Cert/emailAddress=admin@example.org
        Subject Public Key Info:
            Public Key Algorithm: rsaEncryption
                RSA Public-Key: (2048 bit)
                Modulus:
                    00:af:15:08:3b:8e:7b:59:0b:c1:13:9b:ac:c0:30:
                    df:d4:04:52:ee:e0:1b:1b:4f:2f:d1:b0:dc:57:bb:
                    40:04:56:19:d2:60:70:96:9e:bd:f5:ce:2a:07:b0:
                    86:dd:47:82:7f:a4:54:2b:3a:a3:6f:1e:57:ea:b1:
                    b0:ed:a2:e7:cf:5d:ce:61:e4:79:ab:c6:15:9e:43:
                    5c:fe:e2:fe:66:b6:b0:27:ae:1e:f3:13:90:12:ac:
                    1c:aa:fe:5e:f9:4a:c0:b5:70:ae:c4:d4:af:4b:74:
                    a0:11:0e:61:79:51:eb:cc:17:25:3e:6c:93:fa:6d:
                    f4:de:08:7f:10:5b:4a:58:24:e1:13:35:a3:e3:11:
                    65:a2:83:82:30:96:c7:ae:98:2d:7f:2a:49:39:58:
                    00:dc:ea:b2:36:30:19:b2:2f:db:1c:2f:76:82:90:
                    65:e6:38:9d:88:28:67:65:12:c3:3b:3d:77:5f:5e:
                    a0:19:c8:e1:f4:fe:d1:c5:44:1e:a7:a9:1f:b0:19:
                    9f:80:a8:be:94:75:26:6c:a6:ef:74:4f:b2:62:ae:
                    c7:6b:1e:f0:b2:7f:33:46:8b:ef:54:d2:77:a1:4e:
                    74:da:26:6a:a3:5d:c7:87:07:83:a7:3e:e8:9e:ae:
                    a9:74:4f:3e:7b:be:9a:fa:af:4d:25:32:c8:60:3a:
                    53:2b
                Exponent: 65537 (0x10001)
        X509v3 extensions:
            X509v3 Extended Key Usage: 
                TLS Web Server Authentication
            X509v3 CRL Distribution Points: 

                Full Name:
                  URI:http://www.example.com/example_ca.crl

            X509v3 Certificate Policies: 
                Policy: 1.3.6.1.4.1.40808.1.3.2

    Signature Algorithm: sha256WithRSAEncryption
         2a:05:2a:f1:4e:53:3f:ae:7c:28:d7:f7:b5:f6:23:38:f4:95:
         e9:a0:ab:11:39:ce:c7:25:1a:87:de:af:c6:5d:27:d4:81:8e:
         47:b7:98:13:04:21:64:4c:2b:21:61:04:89:e8:35:eb:00:e8:
         a8:a3:56:ab:32:d8:0f:2a:15:fd:bb:4c:32:f7:78:e0:63:71:
         7d:df:43:d9:36:49:7d:85:93:d3:0b:9e:69:be:02:ac:5b:24:
         b5:9c:4f:33:9e:58:4d:2d:08:39:f6:bc:4f:64:3a:8e:5f:39:
         41:8b:ad:a5:d8:78:45:df:df:1a:1d:ec:a6:63:a6:98:7c:47:
         0a:73:d8:f8:d8:73:2a:bd:c3:e2:ed:14:1a:41:36:04:8c:01:
         30:2e:90:58:4b:d6:6b:b0:2d:d8:50:de:bf:0d:de:e3:3d:cb:
         27:6f:94:d2:64:b9:0b:5b:a5:b8:fa:82:99:e9:a2:3b:25:52:
         d3:7c:54:f4:a2:81:4d:b2:21:0b:a4:88:a3:a2:b3:68:1a:61:
         6b:36:c8:72:08:48:a3:3a:32:2a:e5:80:0e:5c:92:99:0b:ff:
         31:21:a0:39:76:1a:4d:a2:fb:db:a8:6a:33:d9:14:5b:63:24:
         7b:b4:e2:b7:98:51:3b:61:c8:80:94:0a:b3:0a:c2:cc:45:6e:
         ec:b6:80:ef
-----BEGIN CERTIFICATE-----
MIIDvDCCAqSgAwIBAgIBATANBgkqhkiG9w0BAQsFADBwMQswCQYDVQQGEwJHQjEP
MA0GA1UECAwGTG9uZG9uMQ8wDQYDVQQHDAZMb25kb24xDDAKBgNVBAoMA01vSjEg
MB4GCSqGSIb3DQEJARYRYWRtaW5AZXhhbXBsZS5vcmcxDzANBgNVBAMMBk1vSiBD
QTAeFw0yMTA3MDUxMzI3MzdaFw0yMTA5MDMxMzI3MzdaMGgxCzAJBgNVBAYTAkdC
MQ8wDQYDVQQIDAZMb25kb24xDDAKBgNVBAoMA01vSjEYMBYGA1UEAwwPTW9KIFNl
cnZlciBDZXJ0MSAwHgYJKoZIhvcNAQkBFhFhZG1pbkBleGFtcGxlLm9yZzCCASIw
DQYJKoZIhvcNAQEBBQADggEPADCCAQoCggEBAK8VCDuOe1kLwRObrMAw39QEUu7g
GxtPL9Gw3Fe7QARWGdJgcJaevfXOKgewht1Hgn+kVCs6o28eV+qxsO2i589dzmHk
eavGFZ5DXP7i/ma2sCeuHvMTkBKsHKr+XvlKwLVwrsTUr0t0oBEOYXlR68wXJT5s
k/pt9N4IfxBbSlgk4RM1o+MRZaKDgjCWx66YLX8qSTlYANzqsjYwGbIv2xwvdoKQ
ZeY4nYgoZ2USwzs9d19eoBnI4fT+0cVEHqepH7AZn4CovpR1Jmym73RPsmKux2se
8LJ/M0aL71TSd6FOdNomaqNdx4cHg6c+6J6uqXRPPnu+mvqvTSUyyGA6UysCAwEA
AaNpMGcwEwYDVR0lBAwwCgYIKwYBBQUHAwEwNgYDVR0fBC8wLTAroCmgJ4YlaHR0
cDovL3d3dy5leGFtcGxlLmNvbS9leGFtcGxlX2NhLmNybDAYBgNVHSAEETAPMA0G
CysGAQQBgr5oAQMCMA0GCSqGSIb3DQEBCwUAA4IBAQAqBSrxTlM/rnwo1/e19iM4
9JXpoKsROc7HJRqH3q/GXSfUgY5Ht5gTBCFkTCshYQSJ6DXrAOioo1arMtgPKhX9
u0wy93jgY3F930PZNkl9hZPTC55pvgKsWyS1nE8znlhNLQg59rxPZDqOXzlBi62l
2HhF398aHeymY6aYfEcKc9j42HMqvcPi7RQaQTYEjAEwLpBYS9ZrsC3YUN6/Dd7j
Pcsnb5TSZLkLW6W4+oKZ6aI7JVLTfFT0ooFNsiELpIijorNoGmFrNshyCEijOjIq
5YAOXJKZC/8xIaA5dhpNovvbqGoz2RRbYyR7tOK3mFE7YciAlAqzCsLMRW7stoDv
-----END CERTIFICATE-----
