Certificate:
    Data:
        Version: 3 (0x2)
        Serial Number: 2 (0x2)
        Signature Algorithm: sha256WithRSAEncryption
        Issuer: C=GB, ST=London, L=London, O=MoJ/emailAddress=admin@example.org, CN=MoJ CA
        Validity
            Not Before: Jul  5 13:27:37 2021 GMT
            Not After : Sep  3 13:27:37 2021 GMT
        Subject: C=GB, ST=London, O=MoJ, CN=user@example.org/emailAddress=user@example.org
        Subject Public Key Info:
            Public Key Algorithm: rsaEncryption
                RSA Public-Key: (2048 bit)
                Modulus:
                    00:ba:fd:eb:0a:8e:e7:65:b3:58:b4:d0:b4:29:6b:
                    e9:ba:81:b8:b2:c3:34:00:57:d0:78:ef:4a:61:af:
                    d5:0a:c8:4b:b8:c8:7f:d2:0a:20:3f:fe:97:55:c0:
                    b6:17:1c:8e:95:4d:d9:15:be:68:04:1b:28:07:9c:
                    2a:84:dd:1b:43:42:a5:48:40:5d:18:27:69:18:92:
                    64:39:80:b5:81:03:48:a8:ca:13:8c:43:32:56:b2:
                    2f:fe:51:c2:e1:41:ca:16:c5:0b:f1:80:71:70:19:
                    17:fe:41:0f:12:8e:af:ff:3c:ad:1f:9a:e9:49:3b:
                    a4:02:0f:82:a4:53:0a:ce:db:90:da:93:aa:3d:d6:
                    e7:d2:ca:0f:40:ad:cd:1c:10:ba:47:9e:c4:df:f3:
                    8a:bd:c1:e6:cb:aa:6f:e1:a6:b0:a7:75:1c:c3:57:
                    66:e5:97:57:15:fa:8a:16:5c:ac:2d:5f:15:09:93:
                    03:ac:f7:14:e3:09:97:53:06:70:b7:ed:44:8e:94:
                    24:01:41:50:23:bd:0c:0c:bf:4a:ed:77:35:67:15:
                    d1:84:b8:d6:43:99:a3:ed:df:85:46:53:f8:68:eb:
                    cf:e3:00:ab:00:47:e4:6d:2a:d1:00:a9:99:58:02:
                    12:b8:f2:a2:1b:5b:96:11:39:87:4c:f8:37:49:5c:
                    76:c5
                Exponent: 65537 (0x10001)
        X509v3 extensions:
            X509v3 Extended Key Usage: 
                TLS Web Client Authentication
            X509v3 CRL Distribution Points: 

                Full Name:
                  URI:http://www.example.com/example_ca.crl

    Signature Algorithm: sha256WithRSAEncryption
         60:28:61:b9:0b:b5:df:c6:a0:6d:20:a7:e6:8f:97:a6:1c:99:
         dc:b9:69:ca:78:13:5a:2f:8c:16:1f:2c:3c:c9:a9:77:34:88:
         14:bf:b9:95:06:3e:84:b7:09:29:a3:32:6c:81:26:d3:04:65:
         b0:7f:9a:f9:f1:49:08:9d:3e:cb:c7:ca:af:f6:87:04:08:5d:
         b5:4f:42:e4:29:bf:8d:7e:d1:0e:d1:7a:d1:dc:2d:32:3c:7b:
         6f:34:a8:e1:c0:a3:68:da:99:4e:2c:d0:b8:be:cb:99:07:32:
         3a:db:1c:b8:a1:3f:a6:62:dd:11:7e:31:d7:95:0d:65:8e:38:
         40:71:1b:06:a9:1d:53:5a:53:53:74:7e:c7:df:09:46:2f:2b:
         12:35:66:de:74:74:4d:34:eb:74:b8:f6:b2:bf:54:32:66:34:
         9d:d9:d1:f0:a8:6d:63:65:5e:13:01:bd:ba:af:e0:fe:2e:09:
         12:16:58:6b:76:df:3b:80:ae:0e:ff:64:6c:90:d4:ee:ea:cf:
         2a:f8:b3:2a:d1:35:65:e9:0c:f2:3c:19:af:29:63:5e:fc:83:
         bf:b1:00:43:44:41:17:1d:68:45:aa:82:52:99:35:35:8a:72:
         74:fd:3c:d8:2c:16:0a:d0:a0:ed:d6:9e:8c:06:26:e8:62:50:
         9a:69:51:4f
-----BEGIN CERTIFICATE-----
MIIDojCCAoqgAwIBAgIBAjANBgkqhkiG9w0BAQsFADBwMQswCQYDVQQGEwJHQjEP
MA0GA1UECAwGTG9uZG9uMQ8wDQYDVQQHDAZMb25kb24xDDAKBgNVBAoMA01vSjEg
MB4GCSqGSIb3DQEJARYRYWRtaW5AZXhhbXBsZS5vcmcxDzANBgNVBAMMBk1vSiBD
QTAeFw0yMTA3MDUxMzI3MzdaFw0yMTA5MDMxMzI3MzdaMGgxCzAJBgNVBAYTAkdC
MQ8wDQYDVQQIDAZMb25kb24xDDAKBgNVBAoMA01vSjEZMBcGA1UEAwwQdXNlckBl
eGFtcGxlLm9yZzEfMB0GCSqGSIb3DQEJARYQdXNlckBleGFtcGxlLm9yZzCCASIw
DQYJKoZIhvcNAQEBBQADggEPADCCAQoCggEBALr96wqO52WzWLTQtClr6bqBuLLD
NABX0HjvSmGv1QrIS7jIf9IKID/+l1XAthccjpVN2RW+aAQbKAecKoTdG0NCpUhA
XRgnaRiSZDmAtYEDSKjKE4xDMlayL/5RwuFByhbFC/GAcXAZF/5BDxKOr/88rR+a
6Uk7pAIPgqRTCs7bkNqTqj3W59LKD0CtzRwQukeexN/zir3B5suqb+GmsKd1HMNX
ZuWXVxX6ihZcrC1fFQmTA6z3FOMJl1MGcLftRI6UJAFBUCO9DAy/Su13NWcV0YS4
1kOZo+3fhUZT+Gjrz+MAqwBH5G0q0QCpmVgCErjyohtblhE5h0z4N0lcdsUCAwEA
AaNPME0wEwYDVR0lBAwwCgYIKwYBBQUHAwIwNgYDVR0fBC8wLTAroCmgJ4YlaHR0
cDovL3d3dy5leGFtcGxlLmNvbS9leGFtcGxlX2NhLmNybDANBgkqhkiG9w0BAQsF
AAOCAQEAYChhuQu138agbSCn5o+XphyZ3LlpyngTWi+MFh8sPMmpdzSIFL+5lQY+
hLcJKaMybIEm0wRlsH+a+fFJCJ0+y8fKr/aHBAhdtU9C5Cm/jX7RDtF60dwtMjx7
bzSo4cCjaNqZTizQuL7LmQcyOtscuKE/pmLdEX4x15UNZY44QHEbBqkdU1pTU3R+
x98JRi8rEjVm3nR0TTTrdLj2sr9UMmY0ndnR8KhtY2VeEwG9uq/g/i4JEhZYa3bf
O4CuDv9kbJDU7urPKvizKtE1ZekM8jwZryljXvyDv7EAQ0RBFx1oRaqCUpk1NYpy
dP082CwWCtCg7daejAYm6GJQmmlRTw==
-----END CERTIFICATE-----
